; Function Attrs: nounwind uwtable
define hidden i32 @BN_mod_lshift1(ptr noundef %0, ptr noundef %1, ptr noundef %2, ptr noundef %3) local_unnamed_addr #0 {
  %5 = tail call i32 @BN_lshift1(ptr noundef %0, ptr noundef %1) #6
  %.not = icmp eq i32 %5, 0
  br i1 %.not, label %BN_nnmod.exit, label %6

6:                                                ; preds = %4
  %7 = tail call i32 @BN_div(ptr noundef null, ptr noundef %0, ptr noundef %0, ptr noundef %2, ptr noundef %3)
  %.not.i = icmp eq i32 %7, 0
  br i1 %.not.i, label %BN_nnmod.exit, label %8

8:                                                ; preds = %6
  %9 = getelementptr inbounds nuw i8, ptr %0, i64 16
  %10 = load i32, ptr %9, align 8, !tbaa !17
  %.not9.i = icmp eq i32 %10, 0
  br i1 %.not9.i, label %BN_nnmod.exit, label %11

11:                                               ; preds = %8
  %12 = getelementptr inbounds nuw i8, ptr %2, i64 16
  %13 = load i32, ptr %12, align 8, !tbaa !17
  %.not10.i = icmp eq i32 %13, 0
  %14 = select i1 %.not10.i, ptr @BN_add, ptr @BN_sub
  %15 = tail call i32 %14(ptr noundef nonnull %0, ptr noundef nonnull %0, ptr noundef %2) #6, !callees !22
  br label %BN_nnmod.exit

BN_nnmod.exit:                                    ; preds = %11, %8, %6, %4
  %.0 = phi i32 [ 0, %4 ], [ %15, %11 ], [ 0, %6 ], [ 1, %8 ]
  ret i32 %.0
}